; Function Attrs: nounwind uwtable
define ptr @l_Std_Time_Internal_UnitVal_tdiv___rarg(ptr noundef %0, ptr noundef %1) local_unnamed_addr #1 {
  %3 = ptrtoint ptr %0 to i64
  %4 = and i64 %3, 1
  %.not.i = icmp eq i64 %4, 0
  br i1 %.not.i, label %.critedge.i, label %5, !prof !15

5:                                                ; preds = %2
  %6 = ptrtoint ptr %1 to i64
  %7 = and i64 %6, 1
  %.not10.i = icmp eq i64 %7, 0
  br i1 %.not10.i, label %.critedge.i, label %8, !prof !15

8:                                                ; preds = %5
  %9 = and i64 %6, 8589934590
  %10 = icmp eq i64 %9, 0
  br i1 %10, label %lean_int_div.exit, label %11

11:                                               ; preds = %8
  %12 = shl i64 %6, 31
  %13 = ashr i64 %12, 32
  %14 = shl i64 %3, 31
  %15 = ashr i64 %14, 32
  %16 = sdiv i64 %15, %13
  %17 = add nsw i64 %16, 2147483648
  %18 = icmp samesign ult i64 %17, 4294967296
  br i1 %18, label %19, label %24, !prof !11

19:                                               ; preds = %11
  %20 = shl nsw i64 %16, 1
  %21 = and i64 %20, 8589934590
  %22 = or disjoint i64 %21, 1
  %23 = inttoptr i64 %22 to ptr
  br label %lean_int_div.exit

24:                                               ; preds = %11
  %25 = tail call ptr @lean_big_int64_to_int(i64 noundef range(i64 -4611686016279904256, 4611686018427387905) %16) #5
  br label %lean_int_div.exit

.critedge.i:                                      ; preds = %5, %2
  %26 = tail call ptr @lean_int_big_div(ptr noundef %0, ptr noundef %1) #5
  br label %lean_int_div.exit

lean_int_div.exit:                                ; preds = %8, %19, %24, %.critedge.i
  %.1.i = phi ptr [ %26, %.critedge.i ], [ inttoptr (i64 1 to ptr), %8 ], [ %23, %19 ], [ %25, %24 ]
  ret ptr %.1.i
}